target datalayout = "e-m:e-p270:32:32-p271:32:32-p272:64:64-i64:64-i128:128-f80:128-n8:16:32:64-S128"
target triple = "x86_64-pc-linux-gnu"

%class.outputStream = type { ptr, i32, i8, i32, i64, %class.TimeStamp, ptr, i64 }
%class.TimeStamp = type { i64 }

@_ZN20AbstractDisassembler12_align_instrE = hidden global i8 1, align 1
@_ZN20AbstractDisassembler11_show_bytesE = hidden global i8 0, align 1
@.str = private unnamed_addr constant [2 x i8] c" \00", align 1
@.str.10 = private unnamed_addr constant [6 x i8] c"%2.2x\00", align 1
@.str.11 = private unnamed_addr constant [3 x i8] c"  \00", align 1
@.str.28 = private unnamed_addr constant [3 x i8] c"| \00", align 1

; Function Attrs: mustprogress nounwind uwtable
define linkonce_odr hidden noundef zeroext i1 @_ZN20AbstractDisassembler11align_instrEv() #1 comdat align 2 {
  %1 = load i8, ptr @_ZN20AbstractDisassembler12_align_instrE, align 1
  %2 = trunc i8 %1 to i1
  ret i1 %2
}

; Function Attrs: mustprogress nounwind uwtable
define hidden noundef i32 @_ZN20AbstractDisassembler15print_delimiterEP12outputStream(ptr noundef %0) #1 align 2 {
  %2 = alloca i32, align 4
  %3 = alloca ptr, align 8
  store ptr %0, ptr %3, align 8
  %4 = call noundef zeroext i1 @_ZN20AbstractDisassembler11align_instrEv()
  br i1 %4, label %5, label %7

5:                                                ; preds = %1
  %6 = load ptr, ptr %3, align 8
  call void (ptr, ptr, ...) @_ZN12outputStream5printEPKcz(ptr noundef nonnull align 8 dereferenceable(56) %6, ptr noundef @.str.28)
  store i32 2, ptr %2, align 4
  br label %8

7:                                                ; preds = %1
  store i32 0, ptr %2, align 4
  br label %8

8:                                                ; preds = %7, %5
  %9 = load i32, ptr %2, align 4
  ret i32 %9
}

; Function Attrs: mustprogress nounwind uwtable
define linkonce_odr hidden noundef i32 @_ZNK12outputStream8positionEv(ptr noundef nonnull align 8 dereferenceable(56) %0) #1 comdat align 2 {
  %2 = alloca ptr, align 8
  store ptr %0, ptr %2, align 8
  %3 = load ptr, ptr %2, align 8
  %4 = getelementptr inbounds %class.outputStream, ptr %3, i32 0, i32 3
  %5 = load i32, ptr %4, align 8
  ret i32 %5
}

; Function Attrs: mustprogress nounwind uwtable
define linkonce_odr hidden noundef zeroext i1 @_ZN20AbstractDisassembler10show_bytesEv() #1 comdat align 2 {
  %1 = load i8, ptr @_ZN20AbstractDisassembler11_show_bytesE, align 1
  %2 = trunc i8 %1 to i1
  ret i1 %2
}

; Function Attrs: mustprogress nounwind uwtable
define hidden noundef i32 @_ZN20AbstractDisassembler17print_instructionEPhiiP12outputStreambb(ptr noundef %0, i32 noundef %1, i32 noundef %2, ptr noundef %3, i1 noundef zeroext %4, i1 noundef zeroext %5) #1 align 2 {
  %7 = alloca i32, align 4
  %8 = alloca ptr, align 8
  %9 = alloca i32, align 4
  %10 = alloca i32, align 4
  %11 = alloca ptr, align 8
  %12 = alloca i8, align 1
  %13 = alloca i8, align 1
  %14 = alloca i32, align 4
  %15 = alloca i32, align 4
  %16 = alloca ptr, align 8
  %17 = alloca ptr, align 8
  %18 = alloca i32, align 4
  %19 = alloca i32, align 4
  %20 = alloca i32, align 4
  %21 = alloca i32, align 4
  store ptr %0, ptr %8, align 8
  store i32 %1, ptr %9, align 4
  store i32 %2, ptr %10, align 4
  store ptr %3, ptr %11, align 8
  %22 = zext i1 %4 to i8
  store i8 %22, ptr %12, align 1
  %23 = zext i1 %5 to i8
  store i8 %23, ptr %13, align 1
  %24 = call noundef zeroext i1 @_ZN20AbstractDisassembler10show_bytesEv()
  br i1 %24, label %25, label %98

25:                                               ; preds = %6
  store i32 2, ptr %14, align 4
  %26 = load ptr, ptr %11, align 8
  %27 = call noundef i32 @_ZNK12outputStream8positionEv(ptr noundef nonnull align 8 dereferenceable(56) %26)
  store i32 %27, ptr %15, align 4
  %28 = load ptr, ptr %8, align 8
  store ptr %28, ptr %16, align 8
  br label %29

29:                                               ; preds = %54, %25
  %30 = load ptr, ptr %16, align 8
  %31 = load ptr, ptr %8, align 8
  %32 = load i32, ptr %9, align 4
  %33 = sext i32 %32 to i64
  %34 = getelementptr inbounds i8, ptr %31, i64 %33
  %35 = getelementptr inbounds i8, ptr %34, i64 -2
  %36 = icmp ule ptr %30, %35
  br i1 %36, label %37, label %57

37:                                               ; preds = %29
  %38 = load ptr, ptr %16, align 8
  store ptr %38, ptr %17, align 8
  br label %39

39:                                               ; preds = %49, %37
  %40 = load ptr, ptr %17, align 8
  %41 = load ptr, ptr %16, align 8
  %42 = getelementptr inbounds i8, ptr %41, i64 2
  %43 = icmp ult ptr %40, %42
  br i1 %43, label %44, label %52

44:                                               ; preds = %39
  %45 = load ptr, ptr %11, align 8
  %46 = load ptr, ptr %17, align 8
  %47 = load i8, ptr %46, align 1
  %48 = zext i8 %47 to i32
  call void (ptr, ptr, ...) @_ZN12outputStream5printEPKcz(ptr noundef nonnull align 8 dereferenceable(56) %45, ptr noundef @.str.10, i32 noundef %48)
  br label %49

49:                                               ; preds = %44
  %50 = load ptr, ptr %17, align 8
  %51 = getelementptr inbounds i8, ptr %50, i32 1
  store ptr %51, ptr %17, align 8
  br label %39, !llvm.loop !6

52:                                               ; preds = %39
  %53 = load ptr, ptr %11, align 8
  call void (ptr, ptr, ...) @_ZN12outputStream5printEPKcz(ptr noundef nonnull align 8 dereferenceable(56) %53, ptr noundef @.str)
  br label %54

54:                                               ; preds = %52
  %55 = load ptr, ptr %16, align 8
  %56 = getelementptr inbounds i8, ptr %55, i64 2
  store ptr %56, ptr %16, align 8
  br label %29, !llvm.loop !8

57:                                               ; preds = %29
  %58 = load i32, ptr %9, align 4
  %59 = and i32 %58, 1
  %60 = icmp ne i32 %59, 0
  br i1 %60, label %61, label %78

61:                                               ; preds = %57
  br label %62

62:                                               ; preds = %74, %61
  %63 = load ptr, ptr %16, align 8
  %64 = load ptr, ptr %8, align 8
  %65 = load i32, ptr %9, align 4
  %66 = sext i32 %65 to i64
  %67 = getelementptr inbounds i8, ptr %64, i64 %66
  %68 = icmp ult ptr %63, %67
  br i1 %68, label %69, label %77

69:                                               ; preds = %62
  %70 = load ptr, ptr %11, align 8
  %71 = load ptr, ptr %16, align 8
  %72 = load i8, ptr %71, align 1
  %73 = zext i8 %72 to i32
  call void (ptr, ptr, ...) @_ZN12outputStream5printEPKcz(ptr noundef nonnull align 8 dereferenceable(56) %70, ptr noundef @.str.10, i32 noundef %73)
  br label %74

74:                                               ; preds = %69
  %75 = load ptr, ptr %16, align 8
  %76 = getelementptr inbounds i8, ptr %75, i32 1
  store ptr %76, ptr %16, align 8
  br label %62, !llvm.loop !9

77:                                               ; preds = %62
  br label %78

78:                                               ; preds = %77, %57
  %79 = load i32, ptr %9, align 4
  %80 = add nsw i32 %79, 1
  store i32 %80, ptr %18, align 4
  br label %81

81:                                               ; preds = %87, %78
  %82 = load i32, ptr %18, align 4
  %83 = load i32, ptr %10, align 4
  %84 = icmp slt i32 %82, %83
  br i1 %84, label %85, label %90

85:                                               ; preds = %81
  %86 = load ptr, ptr %11, align 8
  call void (ptr, ptr, ...) @_ZN12outputStream5printEPKcz(ptr noundef nonnull align 8 dereferenceable(56) %86, ptr noundef @.str.11)
  br label %87

87:                                               ; preds = %85
  %88 = load i32, ptr %18, align 4
  %89 = add nsw i32 %88, 1
  store i32 %89, ptr %18, align 4
  br label %81, !llvm.loop !10

90:                                               ; preds = %81
  %91 = load ptr, ptr %11, align 8
  call void (ptr, ptr, ...) @_ZN12outputStream5printEPKcz(ptr noundef nonnull align 8 dereferenceable(56) %91, ptr noundef @.str)
  %92 = load ptr, ptr %11, align 8
  %93 = call noundef i32 @_ZN20AbstractDisassembler15print_delimiterEP12outputStream(ptr noundef %92)
  %94 = load ptr, ptr %11, align 8
  %95 = call noundef i32 @_ZNK12outputStream8positionEv(ptr noundef nonnull align 8 dereferenceable(56) %94)
  %96 = load i32, ptr %15, align 4
  %97 = sub nsw i32 %95, %96
  store i32 %97, ptr %7, align 4
  br label %113

98:                                               ; preds = %6
  %99 = load i8, ptr %12, align 1
  %100 = trunc i8 %99 to i1
  br i1 %100, label %101, label %112

101:                                              ; preds = %98
  store i32 8, ptr %19, align 4
  %102 = load ptr, ptr %11, align 8
  %103 = call noundef i32 @_ZNK12outputStream8positionEv(ptr noundef nonnull align 8 dereferenceable(56) %102)
  store i32 %103, ptr %20, align 4
  %104 = load i32, ptr %20, align 4
  %105 = add i32 %104, 8
  %106 = sub i32 %105, 1
  %107 = udiv i32 %106, 8
  %108 = mul i32 %107, 8
  store i32 %108, ptr %21, align 4
  %109 = load ptr, ptr %11, align 8
  %110 = load i32, ptr %21, align 4
  %111 = call noundef i32 @_ZN12outputStream7fill_toEi(ptr noundef nonnull align 8 dereferenceable(56) %109, i32 noundef %110)
  br label %112

112:                                              ; preds = %101, %98
  store i32 0, ptr %7, align 4
  br label %113

113:                                              ; preds = %112, %90
  %114 = load i32, ptr %7, align 4
  ret i32 %114
}