; Function Attrs: mustprogress nounwind uwtable
define hidden noundef i32 @_ZN20AbstractDisassembler17print_instructionEPhiiP12outputStreambb(ptr noundef readonly %0, i32 noundef %1, i32 noundef %2, ptr noundef %3, i1 noundef zeroext %4, i1 noundef zeroext %5) local_unnamed_addr #0 align 2 {
  %7 = load i8, ptr @_ZN20AbstractDisassembler11_show_bytesE, align 1
  %8 = trunc i8 %7 to i1
  br i1 %8, label %9, label %32

9:                                                ; preds = %6
  %10 = getelementptr inbounds i8, ptr %3, i64 16
  %11 = load i32, ptr %10, align 8
  %12 = sext i32 %1 to i64
  %13 = getelementptr inbounds i8, ptr %0, i64 %12
  %14 = getelementptr inbounds i8, ptr %13, i64 -2
  %.not41 = icmp ult ptr %14, %0
  br i1 %.not41, label %._crit_edge, label %.preheader39

.preheader39:                                     ; preds = %9, %.preheader39
  %.03442 = phi ptr [ %19, %.preheader39 ], [ %0, %9 ]
  %15 = load i8, ptr %.03442, align 1
  %16 = zext i8 %15 to i32
  tail call void (ptr, ptr, ...) @_ZN12outputStream5printEPKcz(ptr noundef nonnull align 8 dereferenceable(56) %3, ptr noundef nonnull @.str.10, i32 noundef %16) #3
  %.035.ptr.c = getelementptr inbounds i8, ptr %.03442, i64 1
  %17 = load i8, ptr %.035.ptr.c, align 1
  %18 = zext i8 %17 to i32
  tail call void (ptr, ptr, ...) @_ZN12outputStream5printEPKcz(ptr noundef nonnull align 8 dereferenceable(56) %3, ptr noundef nonnull @.str.10, i32 noundef %18) #3
  %19 = getelementptr inbounds i8, ptr %.03442, i64 2
  tail call void (ptr, ptr, ...) @_ZN12outputStream5printEPKcz(ptr noundef nonnull align 8 dereferenceable(56) %3, ptr noundef nonnull @.str) #3
  %.not = icmp ugt ptr %19, %14
  br i1 %.not, label %._crit_edge, label %.preheader39, !llvm.loop !6

._crit_edge:                                      ; preds = %.preheader39, %9
  %.034.lcssa = phi ptr [ %0, %9 ], [ %19, %.preheader39 ]
  %20 = and i32 %1, 1
  %.not38 = icmp ne i32 %20, 0
  %21 = icmp ult ptr %.034.lcssa, %13
  %or.cond = select i1 %.not38, i1 %21, i1 false
  br i1 %or.cond, label %.lr.ph, label %.loopexit

.lr.ph:                                           ; preds = %._crit_edge, %.lr.ph
  %.144 = phi ptr [ %24, %.lr.ph ], [ %.034.lcssa, %._crit_edge ]
  %22 = load i8, ptr %.144, align 1
  %23 = zext i8 %22 to i32
  tail call void (ptr, ptr, ...) @_ZN12outputStream5printEPKcz(ptr noundef nonnull align 8 dereferenceable(56) %3, ptr noundef nonnull @.str.10, i32 noundef %23) #3
  %24 = getelementptr inbounds i8, ptr %.144, i64 1
  %25 = icmp ult ptr %24, %13
  br i1 %25, label %.lr.ph, label %.loopexit, !llvm.loop !8

.loopexit:                                        ; preds = %.lr.ph, %._crit_edge
  %.03645 = add nsw i32 %1, 1
  %26 = icmp slt i32 %.03645, %2
  br i1 %26, label %.lr.ph48, label %._crit_edge49

.lr.ph48:                                         ; preds = %.loopexit, %.lr.ph48
  %.03646 = phi i32 [ %.036, %.lr.ph48 ], [ %.03645, %.loopexit ]
  tail call void (ptr, ptr, ...) @_ZN12outputStream5printEPKcz(ptr noundef nonnull align 8 dereferenceable(56) %3, ptr noundef nonnull @.str.11) #3
  %.036 = add i32 %.03646, 1
  %exitcond.not = icmp eq i32 %.036, %2
  br i1 %exitcond.not, label %._crit_edge49, label %.lr.ph48, !llvm.loop !9

._crit_edge49:                                    ; preds = %.lr.ph48, %.loopexit
  tail call void (ptr, ptr, ...) @_ZN12outputStream5printEPKcz(ptr noundef nonnull align 8 dereferenceable(56) %3, ptr noundef nonnull @.str) #3
  %27 = load i8, ptr @_ZN20AbstractDisassembler12_align_instrE, align 1
  %28 = trunc i8 %27 to i1
  br i1 %28, label %29, label %_ZN20AbstractDisassembler15print_delimiterEP12outputStream.exit

29:                                               ; preds = %._crit_edge49
  tail call void (ptr, ptr, ...) @_ZN12outputStream5printEPKcz(ptr noundef nonnull align 8 dereferenceable(56) %3, ptr noundef nonnull @.str.28) #3
  br label %_ZN20AbstractDisassembler15print_delimiterEP12outputStream.exit

_ZN20AbstractDisassembler15print_delimiterEP12outputStream.exit: ; preds = %._crit_edge49, %29
  %30 = load i32, ptr %10, align 8
  %31 = sub nsw i32 %30, %11
  br label %39

32:                                               ; preds = %6
  br i1 %4, label %33, label %39

33:                                               ; preds = %32
  %34 = getelementptr inbounds i8, ptr %3, i64 16
  %35 = load i32, ptr %34, align 8
  %36 = add i32 %35, 7
  %37 = and i32 %36, -8
  %38 = tail call noundef i32 @_ZN12outputStream7fill_toEi(ptr noundef nonnull align 8 dereferenceable(56) %3, i32 noundef %37) #3
  br label %39

39:                                               ; preds = %32, %33, %_ZN20AbstractDisassembler15print_delimiterEP12outputStream.exit
  %.0 = phi i32 [ %31, %_ZN20AbstractDisassembler15print_delimiterEP12outputStream.exit ], [ 0, %33 ], [ 0, %32 ]
  ret i32 %.0
}